; ModuleID = '62/565.c'
source_filename = "62/565.c"
target datalayout = "e-m:e-p270:32:32-p271:32:32-p272:64:64-i64:64-f80:128-n8:16:32:64-S128"
target triple = "x86_64-pc-linux-gnu"

; Function Attrs: noinline nounwind uwtable
define dso_local void @main() #0 {
  %1 = alloca i32, align 4
  %2 = alloca i32, align 4
  %3 = alloca i32, align 4
  %4 = alloca i32, align 4
  %5 = alloca i32, align 4
  %6 = alloca i32, align 4
  %7 = alloca [100 x i8], align 16
  %8 = alloca i8*, align 8
  %9 = getelementptr inbounds [100 x i8], [100 x i8]* %7, i64 0, i64 0
  store i8* %9, i8** %8, align 8
  %10 = load i8*, i8** %8, align 8
  %11 = call i32 (i8*, ...) bitcast (i32 (...)* @gets to i32 (i8*, ...)*)(i8* %10)
  store i32 0, i32* %1, align 4
  br label %12

12:                                               ; preds = %65, %0
  %13 = load i8*, i8** %8, align 8
  %14 = load i32, i32* %1, align 4
  %15 = sext i32 %14 to i64
  %16 = getelementptr inbounds i8, i8* %13, i64 %15
  %17 = load i8, i8* %16, align 1
  %18 = sext i8 %17 to i32
  %19 = icmp ne i32 %18, 0
  br i1 %19, label %20, label %68

20:                                               ; preds = %12
  %21 = load i8*, i8** %8, align 8
  %22 = load i32, i32* %1, align 4
  %23 = sext i32 %22 to i64
  %24 = getelementptr inbounds i8, i8* %21, i64 %23
  %25 = load i8, i8* %24, align 1
  %26 = sext i8 %25 to i32
  %27 = icmp eq i32 %26, 32
  br i1 %27, label %28, label %64

28:                                               ; preds = %20
  %29 = load i8*, i8** %8, align 8
  %30 = load i32, i32* %1, align 4
  %31 = sext i32 %30 to i64
  %32 = getelementptr inbounds i8, i8* %29, i64 %31
  %33 = getelementptr inbounds i8, i8* %32, i64 1
  %34 = load i8, i8* %33, align 1
  %35 = sext i8 %34 to i32
  %36 = icmp eq i32 %35, 32
  br i1 %36, label %37, label %64

37:                                               ; preds = %28
  %38 = load i32, i32* %1, align 4
  store i32 %38, i32* %2, align 4
  br label %39

39:                                               ; preds = %58, %37
  %40 = load i8*, i8** %8, align 8
  %41 = load i32, i32* %2, align 4
  %42 = sext i32 %41 to i64
  %43 = getelementptr inbounds i8, i8* %40, i64 %42
  %44 = load i8, i8* %43, align 1
  %45 = sext i8 %44 to i32
  %46 = icmp ne i32 %45, 0
  br i1 %46, label %47, label %61

47:                                               ; preds = %39
  %48 = load i8*, i8** %8, align 8
  %49 = load i32, i32* %2, align 4
  %50 = sext i32 %49 to i64
  %51 = getelementptr inbounds i8, i8* %48, i64 %50
  %52 = getelementptr inbounds i8, i8* %51, i64 1
  %53 = load i8, i8* %52, align 1
  %54 = load i8*, i8** %8, align 8
  %55 = load i32, i32* %2, align 4
  %56 = sext i32 %55 to i64
  %57 = getelementptr inbounds i8, i8* %54, i64 %56
  store i8 %53, i8* %57, align 1
  br label %58

58:                                               ; preds = %47
  %59 = load i32, i32* %2, align 4
  %60 = add nsw i32 %59, 1
  store i32 %60, i32* %2, align 4
  br label %39

61:                                               ; preds = %39
  %62 = load i32, i32* %1, align 4
  %63 = add nsw i32 %62, -1
  store i32 %63, i32* %1, align 4
  br label %64

64:                                               ; preds = %61, %28, %20
  br label %65

65:                                               ; preds = %64
  %66 = load i32, i32* %1, align 4
  %67 = add nsw i32 %66, 1
  store i32 %67, i32* %1, align 4
  br label %12

68:                                               ; preds = %12
  %69 = load i8*, i8** %8, align 8
  %70 = call i32 @puts(i8* %69)
  ret void
}

declare dso_local i32 @gets(...) #1

declare dso_local i32 @puts(i8*) #1


!llvm.module.flags = !{!0}
!llvm.ident = !{!1}

!0 = !{i32 1, !"wchar_size", i32 4}
!1 = !{!"clang version 10.0.0-4ubuntu1 "}
