; ModuleID = 'source-C-CXX/61/565.c'
source_filename = "source-C-CXX/61/565.c"
target datalayout = "e-m:e-p270:32:32-p271:32:32-p272:64:64-i64:64-f80:128-n8:16:32:64-S128"
target triple = "x86_64-pc-linux-gnu"

; Function Attrs: nounwind sspstrong uwtable
define dso_local void @main() local_unnamed_addr #0 {
  %1 = alloca [100 x i8], align 16
  %2 = getelementptr inbounds [100 x i8], [100 x i8]* %1, i64 0, i64 0
  call void @llvm.lifetime.start.p0i8(i64 100, i8* nonnull %2) #4
  %3 = call i32 (i8*, ...) bitcast (i32 (...)* @gets to i32 (i8*, ...)*)(i8* nonnull %2) #4
  br label %4

4:                                                ; preds = %29, %0
  %5 = phi i32 [ 0, %0 ], [ %31, %29 ]
  %6 = sext i32 %5 to i64
  %7 = getelementptr inbounds [100 x i8], [100 x i8]* %1, i64 0, i64 %6
  %8 = load i8, i8* %7, align 1, !tbaa !5
  switch i8 %8, label %29 [
    i8 0, label %32
    i8 32, label %9
  ]

9:                                                ; preds = %4
  %10 = getelementptr inbounds i8, i8* %7, i64 1
  %11 = load i8, i8* %10, align 1, !tbaa !5
  %12 = icmp eq i8 %11, 32
  br i1 %12, label %13, label %29

13:                                               ; preds = %9
  store i8 32, i8* %7, align 1, !tbaa !5
  %14 = add nsw i64 %6, 1
  %15 = getelementptr inbounds [100 x i8], [100 x i8]* %1, i64 0, i64 %14
  %16 = load i8, i8* %15, align 1, !tbaa !5
  %17 = icmp eq i8 %16, 0
  br i1 %17, label %27, label %18, !llvm.loop !8

18:                                               ; preds = %13, %18
  %19 = phi i8* [ %24, %18 ], [ %15, %13 ]
  %20 = phi i64 [ %23, %18 ], [ %14, %13 ]
  %21 = getelementptr inbounds i8, i8* %19, i64 1
  %22 = load i8, i8* %21, align 1, !tbaa !5
  store i8 %22, i8* %19, align 1, !tbaa !5
  %23 = add nsw i64 %20, 1
  %24 = getelementptr inbounds [100 x i8], [100 x i8]* %1, i64 0, i64 %23
  %25 = load i8, i8* %24, align 1, !tbaa !5
  %26 = icmp eq i8 %25, 0
  br i1 %26, label %27, label %18, !llvm.loop !8

27:                                               ; preds = %18, %13
  %28 = add nsw i32 %5, -1
  br label %29

29:                                               ; preds = %4, %9, %27
  %30 = phi i32 [ %28, %27 ], [ %5, %9 ], [ %5, %4 ]
  %31 = add nsw i32 %30, 1
  br label %4, !llvm.loop !10

32:                                               ; preds = %4
  %33 = call i32 @puts(i8* nonnull %2)
  call void @llvm.lifetime.end.p0i8(i64 100, i8* nonnull %2) #4
  ret void
}

; Function Attrs: argmemonly mustprogress nofree nosync nounwind willreturn
declare void @llvm.lifetime.start.p0i8(i64 immarg, i8* nocapture) #1

declare i32 @gets(...) local_unnamed_addr #2

; Function Attrs: nofree nounwind
declare noundef i32 @puts(i8* nocapture noundef readonly) local_unnamed_addr #3

; Function Attrs: argmemonly mustprogress nofree nosync nounwind willreturn
declare void @llvm.lifetime.end.p0i8(i64 immarg, i8* nocapture) #1


!llvm.module.flags = !{!0, !1, !2, !3}
!llvm.ident = !{!4}

!0 = !{i32 1, !"wchar_size", i32 4}
!1 = !{i32 7, !"PIC Level", i32 2}
!2 = !{i32 7, !"PIE Level", i32 2}
!3 = !{i32 7, !"uwtable", i32 1}
!4 = !{!"clang version 13.0.0"}
!5 = !{!6, !6, i64 0}
!6 = !{!"omnipotent char", !7, i64 0}
!7 = !{!"Simple C/C++ TBAA"}
!8 = distinct !{!8, !9}
!9 = !{!"llvm.loop.mustprogress"}
!10 = distinct !{!10, !9}
